ccopy_reg
_reconstructor
p0
(csklearn.linear_model.base
LinearRegression
p1
c__builtin__
object
p2
Ntp3
Rp4
(dp5
S'normalize'
p6
I00
sS'n_jobs'
p7
I-1
sS'rank_'
p8
I4
sS'fit_intercept'
p9
I01
sS'_residues'
p10
cnumpy.core.multiarray
scalar
p11
(cnumpy
dtype
p12
(S'f8'
p13
I0
I1
tp14
Rp15
(I3
S'<'
p16
NNNI-1
I-1
I0
tp17
bS'\xe0\x04Q \xb1\xebJA'
p18
tp19
Rp20
sS'coef_'
p21
cnumpy.core.multiarray
_reconstruct
p22
(cnumpy
ndarray
p23
(I0
tp24
S'b'
p25
tp26
Rp27
(I1
(L4L
tp28
g15
I00
S'|GD\xa78\xf8m@\xc0\xcc\xdd"\xf8\xf9\xab\xbf\xed\xcc\xfdW\x05V\xe4?\xc50\x88\x0e\xf5\x00\t\xc0'
p29
tp30
bsS'copy_X'
p31
I01
sS'intercept_'
p32
g11
(g15
S'\xfe\xe1(JX4y@'
p33
tp34
Rp35
sS'singular_'
p36
g22
(g23
(I0
tp37
g25
tp38
Rp39
(I1
(L4L
tp40
g15
I00
S'\xb5A\xb6\xafl\xf6Q@\xd6\r{D\xbc\xcfM@F#c\x1bj\xee@@\xb8\x8dc\x7f\xca!7@'
p41
tp42
bsb.