(i__main__
LinearRegression
p0
(dp1
S'coef'
p2
(lp3
F22.576222646355138
aF-9.99991502549537
aF4.940448769178839
aF0.4425589951503365
aF2.7106476722224087
aF-8.728110544089267
aF17.296332331179233
aF1.1793645406706528
aF-15.675982879441687
aF6.957862149208532
aF-6.131313020991933
aF-8.757230490924867
aF3.0355564455117907
aF-22.65846231233337
asb.